; Function Attrs: nounwind uwtable
define void @Java_sun_security_pkcs11_wrapper_PKCS11_C_1VerifyFinal(ptr noundef %0, ptr noundef %1, i64 noundef %2, ptr noundef %3) local_unnamed_addr #0 {
  %5 = alloca ptr, align 8
  %6 = alloca i64, align 8
  store ptr null, ptr %5, align 8
  %7 = tail call ptr @getFunctionList(ptr noundef %0, ptr noundef %1) #5
  %8 = icmp eq ptr %7, null
  br i1 %8, label %22, label %9

9:                                                ; preds = %4
  call void @jByteArrayToCKByteArray(ptr noundef %0, ptr noundef %3, ptr noundef nonnull %5, ptr noundef nonnull %6) #5
  %10 = load ptr, ptr %0, align 8
  %11 = getelementptr inbounds i8, ptr %10, i64 1824
  %12 = load ptr, ptr %11, align 8
  %13 = call zeroext i8 %12(ptr noundef nonnull %0) #5
  %.not = icmp eq i8 %13, 0
  br i1 %.not, label %14, label %22

14:                                               ; preds = %9
  %15 = getelementptr inbounds i8, ptr %7, i64 416
  %16 = load ptr, ptr %15, align 8
  %17 = load ptr, ptr %5, align 8
  %18 = load i64, ptr %6, align 8
  %19 = call i64 %16(i64 noundef %2, ptr noundef %17, i64 noundef %18) #5
  %20 = load ptr, ptr %5, align 8
  call void @free(ptr noundef %20) #5
  %21 = call i64 @ckAssertReturnValueOK(ptr noundef nonnull %0, i64 noundef %19) #5
  br label %22

22:                                               ; preds = %9, %4, %14
  ret void
}